target datalayout = "e-m:e-p270:32:32-p271:32:32-p272:64:64-i64:64-i128:128-f80:128-n8:16:32:64-S128"
target triple = "x86_64-pc-linux-gnu"

%"class.std::__cxx11::basic_string" = type { %"struct.std::__cxx11::basic_string<char>::_Alloc_hider", i64, %union.anon }
%"struct.std::__cxx11::basic_string<char>::_Alloc_hider" = type { ptr }
%union.anon = type { i64, [8 x i8] }
%"struct.std::_Rb_tree_header" = type { %"struct.std::_Rb_tree_node_base", i64 }
%"struct.std::_Rb_tree_node_base" = type { i32, ptr, ptr, ptr }
%"class.casadi::BSplineInterpolant" = type { %"class.casadi::Interpolant", %"class.casadi::Function", %"class.std::__cxx11::basic_string", i32, double, %"class.std::vector.48" }
%"class.casadi::Interpolant" = type { %"class.casadi::FunctionInternal", %"class.casadi::PluginInterface", i64, i64, i64, %"class.std::vector.43", %"class.std::vector.48", %"class.std::vector.43", %"class.std::vector.27" }
%"class.casadi::FunctionInternal" = type { %"class.casadi::ProtoFunction", i8, i8, i64, i64, %"class.std::vector.18", %"class.std::vector.18", %"class.std::vector.22", %"class.std::vector.22", %"class.std::vector.27", %"class.std::vector.27", i8, i8, %"class.std::__cxx11::basic_string", %"class.std::__cxx11::basic_string", %"class.std::__cxx11::basic_string", i8, ptr, ptr, ptr, %"class.std::map.32", i8, %"class.std::map.32", %"class.casadi::WeakCache", [2 x %"class.std::vector.22"], %"class.casadi::Function", ptr, %"class.std::__cxx11::basic_string", %"class.casadi::Importer", %"class.std::map.32", double, i8, i8, i8, i8, i8, i8, i8, i8, double, double, i64, i8, %"class.std::map.32", double, %"class.std::__cxx11::basic_string", i8, i8, i64, i8, i8, i8, %"class.std::__cxx11::basic_string", %"class.std::__cxx11::basic_string", %"class.std::map.32", %"class.std::map.32", %"class.std::map.32", %"class.std::map.32", %"class.casadi::Function", i64, i64, i64, i64, i64, i64, i64, i64, i64 }
%"class.casadi::ProtoFunction" = type { %"class.casadi::SharedObjectInternal", %"class.std::__cxx11::basic_string", i8, i8, i8, i8, i8, %"class.std::vector.10", %"class.std::stack" }
%"class.casadi::SharedObjectInternal" = type { %"class.casadi::GenericSharedInternal", i64 }
%"class.casadi::GenericSharedInternal" = type { ptr, ptr }
%"class.std::vector.10" = type { %"struct.std::_Vector_base.11" }
%"struct.std::_Vector_base.11" = type { %"struct.std::_Vector_base<void *, std::allocator<void *>>::_Vector_impl" }
%"struct.std::_Vector_base<void *, std::allocator<void *>>::_Vector_impl" = type { %"struct.std::_Vector_base<void *, std::allocator<void *>>::_Vector_impl_data" }
%"struct.std::_Vector_base<void *, std::allocator<void *>>::_Vector_impl_data" = type { ptr, ptr, ptr }
%"class.std::stack" = type { %"class.std::deque" }
%"class.std::deque" = type { %"class.std::_Deque_base" }
%"class.std::_Deque_base" = type { %"struct.std::_Deque_base<int, std::allocator<int>>::_Deque_impl" }
%"struct.std::_Deque_base<int, std::allocator<int>>::_Deque_impl" = type { %"struct.std::_Deque_base<int, std::allocator<int>>::_Deque_impl_data" }
%"struct.std::_Deque_base<int, std::allocator<int>>::_Deque_impl_data" = type { ptr, i64, %"struct.std::_Deque_iterator", %"struct.std::_Deque_iterator" }
%"struct.std::_Deque_iterator" = type { ptr, ptr, ptr, ptr }
%"class.std::vector.18" = type { %"struct.std::_Bvector_base" }
%"struct.std::_Bvector_base" = type { %"struct.std::_Bvector_base<std::allocator<bool>>::_Bvector_impl" }
%"struct.std::_Bvector_base<std::allocator<bool>>::_Bvector_impl" = type { %"struct.std::_Bvector_base<std::allocator<bool>>::_Bvector_impl_data" }
%"struct.std::_Bvector_base<std::allocator<bool>>::_Bvector_impl_data" = type { %"struct.std::_Bit_iterator", %"struct.std::_Bit_iterator", ptr }
%"struct.std::_Bit_iterator" = type { %"struct.std::_Bit_iterator_base.base", [4 x i8] }
%"struct.std::_Bit_iterator_base.base" = type <{ ptr, i32 }>
%"class.std::vector.22" = type { %"struct.std::_Vector_base.23" }
%"struct.std::_Vector_base.23" = type { %"struct.std::_Vector_base<casadi::Sparsity, std::allocator<casadi::Sparsity>>::_Vector_impl" }
%"struct.std::_Vector_base<casadi::Sparsity, std::allocator<casadi::Sparsity>>::_Vector_impl" = type { %"struct.std::_Vector_base<casadi::Sparsity, std::allocator<casadi::Sparsity>>::_Vector_impl_data" }
%"struct.std::_Vector_base<casadi::Sparsity, std::allocator<casadi::Sparsity>>::_Vector_impl_data" = type { ptr, ptr, ptr }
%"class.casadi::WeakCache" = type { %"class.std::unordered_map" }
%"class.std::unordered_map" = type { %"class.std::_Hashtable" }
%"class.std::_Hashtable" = type { ptr, i64, %"struct.std::__detail::_Hash_node_base", i64, %"struct.std::__detail::_Prime_rehash_policy", ptr }
%"struct.std::__detail::_Hash_node_base" = type { ptr }
%"struct.std::__detail::_Prime_rehash_policy" = type { float, i64 }
%"class.casadi::Importer" = type { %"class.casadi::SharedObject" }
%"class.casadi::SharedObject" = type { %"class.casadi::GenericShared" }
%"class.casadi::GenericShared" = type { ptr }
%"class.std::map.32" = type { %"class.std::_Rb_tree.33" }
%"class.std::_Rb_tree.33" = type { %"struct.std::_Rb_tree<std::__cxx11::basic_string<char>, std::pair<const std::__cxx11::basic_string<char>, casadi::GenericType>, std::_Select1st<std::pair<const std::__cxx11::basic_string<char>, casadi::GenericType>>, std::less<std::__cxx11::basic_string<char>>>::_Rb_tree_impl" }
%"struct.std::_Rb_tree<std::__cxx11::basic_string<char>, std::pair<const std::__cxx11::basic_string<char>, casadi::GenericType>, std::_Select1st<std::pair<const std::__cxx11::basic_string<char>, casadi::GenericType>>, std::less<std::__cxx11::basic_string<char>>>::_Rb_tree_impl" = type { [8 x i8], %"struct.std::_Rb_tree_header" }
%"class.casadi::PluginInterface" = type { ptr }
%"class.std::vector.43" = type { %"struct.std::_Vector_base.44" }
%"struct.std::_Vector_base.44" = type { %"struct.std::_Vector_base<double, std::allocator<double>>::_Vector_impl" }
%"struct.std::_Vector_base<double, std::allocator<double>>::_Vector_impl" = type { %"struct.std::_Vector_base<double, std::allocator<double>>::_Vector_impl_data" }
%"struct.std::_Vector_base<double, std::allocator<double>>::_Vector_impl_data" = type { ptr, ptr, ptr }
%"class.std::vector.27" = type { %"struct.std::_Vector_base.28" }
%"struct.std::_Vector_base.28" = type { %"struct.std::_Vector_base<std::__cxx11::basic_string<char>, std::allocator<std::__cxx11::basic_string<char>>>::_Vector_impl" }
%"struct.std::_Vector_base<std::__cxx11::basic_string<char>, std::allocator<std::__cxx11::basic_string<char>>>::_Vector_impl" = type { %"struct.std::_Vector_base<std::__cxx11::basic_string<char>, std::allocator<std::__cxx11::basic_string<char>>>::_Vector_impl_data" }
%"struct.std::_Vector_base<std::__cxx11::basic_string<char>, std::allocator<std::__cxx11::basic_string<char>>>::_Vector_impl_data" = type { ptr, ptr, ptr }
%"class.casadi::Function" = type { %"class.casadi::SharedObject" }
%"class.std::vector.48" = type { %"struct.std::_Vector_base.49" }
%"struct.std::_Vector_base.49" = type { %"struct.std::_Vector_base<long long, std::allocator<long long>>::_Vector_impl" }
%"struct.std::_Vector_base<long long, std::allocator<long long>>::_Vector_impl" = type { %"struct.std::_Vector_base<long long, std::allocator<long long>>::_Vector_impl_data" }
%"struct.std::_Vector_base<long long, std::allocator<long long>>::_Vector_impl_data" = type { ptr, ptr, ptr }
%"class.casadi::scoped_checkout" = type { i32, ptr }

; Function Attrs: mustprogress nounwind uwtable
define linkonce_odr hidden noundef i64 @_ZNK6casadi15scoped_checkoutINS_8FunctionEEcvxEv(ptr noundef nonnull align 8 dereferenceable(16) %0) #4 comdat align 2 {
  %2 = alloca ptr, align 8
  store ptr %0, ptr %2, align 8, !tbaa !228
  %3 = load ptr, ptr %2, align 8
  %4 = getelementptr inbounds nuw %"class.casadi::scoped_checkout", ptr %3, i32 0, i32 0
  %5 = load i32, ptr %4, align 8, !tbaa !232
  %6 = sext i32 %5 to i64
  ret i64 %6
}

; Function Attrs: mustprogress uwtable
define linkonce_odr hidden void @_ZN6casadi15scoped_checkoutINS_8FunctionEEC2ERKS1_(ptr noundef nonnull align 8 dereferenceable(16) %0, ptr noundef nonnull align 8 dereferenceable(8) %1) unnamed_addr #5 comdat align 2 {
  %3 = alloca ptr, align 8
  %4 = alloca ptr, align 8
  store ptr %0, ptr %3, align 8, !tbaa !228
  store ptr %1, ptr %4, align 8, !tbaa !206
  %5 = load ptr, ptr %3, align 8
  %6 = getelementptr inbounds nuw %"class.casadi::scoped_checkout", ptr %5, i32 0, i32 1
  %7 = load ptr, ptr %4, align 8, !tbaa !206
  store ptr %7, ptr %6, align 8, !tbaa !206
  %8 = getelementptr inbounds nuw %"class.casadi::scoped_checkout", ptr %5, i32 0, i32 1
  %9 = load ptr, ptr %8, align 8, !tbaa !230
  %10 = call noundef i64 @_ZNK6casadi8Function8checkoutEv(ptr noundef nonnull align 8 dereferenceable(8) %9)
  %11 = trunc i64 %10 to i32
  %12 = getelementptr inbounds nuw %"class.casadi::scoped_checkout", ptr %5, i32 0, i32 0
  store i32 %11, ptr %12, align 8, !tbaa !232
  ret void
}

; Function Attrs: mustprogress uwtable
define noundef i32 @_ZNK6casadi18BSplineInterpolant4evalEPPKdPPdPxS4_Pv(ptr noundef nonnull align 8 dereferenceable(1520) %0, ptr noundef %1, ptr noundef %2, ptr noundef %3, ptr noundef %4, ptr noundef %5) unnamed_addr #5 align 2 personality ptr @__gxx_personality_v0 {
  %7 = alloca ptr, align 8
  %8 = alloca ptr, align 8
  %9 = alloca ptr, align 8
  %10 = alloca ptr, align 8
  %11 = alloca ptr, align 8
  %12 = alloca ptr, align 8
  %13 = alloca %"class.casadi::scoped_checkout", align 8
  %14 = alloca ptr, align 8
  %15 = alloca i32, align 4
  store ptr %0, ptr %7, align 8, !tbaa !75
  store ptr %1, ptr %8, align 8, !tbaa !226
  store ptr %2, ptr %9, align 8, !tbaa !226
  store ptr %3, ptr %10, align 8, !tbaa !183
  store ptr %4, ptr %11, align 8, !tbaa !99
  store ptr %5, ptr %12, align 8, !tbaa !30
  %16 = load ptr, ptr %7, align 8
  call void @llvm.lifetime.start.p0(i64 16, ptr %13) #3
  %17 = getelementptr inbounds nuw %"class.casadi::BSplineInterpolant", ptr %16, i32 0, i32 1
  call void @_ZN6casadi15scoped_checkoutINS_8FunctionEEC2ERKS1_(ptr noundef nonnull align 8 dereferenceable(16) %13, ptr noundef nonnull align 8 dereferenceable(8) %17)
  %18 = getelementptr inbounds nuw %"class.casadi::BSplineInterpolant", ptr %16, i32 0, i32 1
  %19 = load ptr, ptr %8, align 8, !tbaa !226
  %20 = load ptr, ptr %9, align 8, !tbaa !226
  %21 = load ptr, ptr %10, align 8, !tbaa !183
  %22 = load ptr, ptr %11, align 8, !tbaa !99
  %23 = invoke noundef i64 @_ZNK6casadi15scoped_checkoutINS_8FunctionEEcvxEv(ptr noundef nonnull align 8 dereferenceable(16) %13)
          to label %24 unwind label %28

24:                                               ; preds = %6
  %25 = trunc i64 %23 to i32
  %26 = invoke noundef i32 @_ZNK6casadi8FunctionclEPPKdPPdPxS4_i(ptr noundef nonnull align 8 dereferenceable(8) %18, ptr noundef %19, ptr noundef %20, ptr noundef %21, ptr noundef %22, i32 noundef %25)
          to label %27 unwind label %28

27:                                               ; preds = %24
  call void @_ZN6casadi15scoped_checkoutINS_8FunctionEED2Ev(ptr noundef nonnull align 8 dereferenceable(16) %13) #3
  call void @llvm.lifetime.end.p0(i64 16, ptr %13) #3
  ret i32 %26

28:                                               ; preds = %24, %6
  %29 = landingpad { ptr, i32 }
          cleanup
  %30 = extractvalue { ptr, i32 } %29, 0
  store ptr %30, ptr %14, align 8
  %31 = extractvalue { ptr, i32 } %29, 1
  store i32 %31, ptr %15, align 4
  call void @_ZN6casadi15scoped_checkoutINS_8FunctionEED2Ev(ptr noundef nonnull align 8 dereferenceable(16) %13) #3
  call void @llvm.lifetime.end.p0(i64 16, ptr %13) #3
  br label %32

32:                                               ; preds = %28
  %33 = load ptr, ptr %14, align 8
  %34 = load i32, ptr %15, align 4
  %35 = insertvalue { ptr, i32 } poison, ptr %33, 0
  %36 = insertvalue { ptr, i32 } %35, i32 %34, 1
  resume { ptr, i32 } %36
}